target datalayout = "e-m:e-p270:32:32-p271:32:32-p272:64:64-i64:64-i128:128-f80:128-n8:16:32:64-S128"
target triple = "x86_64-pc-linux-gnu"

%struct.SDL_PixelFormatDetails = type { i32, i8, i8, [2 x i8], i32, i32, i32, i32, i8, i8, i8, i8, i8, i8, i8, i8 }

@SDL_expand_byte = external global [9 x ptr], align 16

; Function Attrs: nounwind uwtable
define internal void @get_permutation(ptr noundef %0, ptr noundef %1, ptr noundef %2, ptr noundef %3, ptr noundef %4, ptr noundef %5, ptr noundef %6) #0 {
  %8 = alloca ptr, align 8
  %9 = alloca ptr, align 8
  %10 = alloca ptr, align 8
  %11 = alloca ptr, align 8
  %12 = alloca ptr, align 8
  %13 = alloca ptr, align 8
  %14 = alloca ptr, align 8
  %15 = alloca i32, align 4
  %16 = alloca i32, align 4
  %17 = alloca i32, align 4
  %18 = alloca i32, align 4
  %19 = alloca i32, align 4
  %20 = alloca i32, align 4
  store ptr %0, ptr %8, align 8
  store ptr %1, ptr %9, align 8
  store ptr %2, ptr %10, align 8
  store ptr %3, ptr %11, align 8
  store ptr %4, ptr %12, align 8
  store ptr %5, ptr %13, align 8
  store ptr %6, ptr %14, align 8
  call void @llvm.lifetime.start.p0(i64 4, ptr %15) #3
  store i32 0, ptr %15, align 4
  call void @llvm.lifetime.start.p0(i64 4, ptr %16) #3
  call void @llvm.lifetime.start.p0(i64 4, ptr %17) #3
  call void @llvm.lifetime.start.p0(i64 4, ptr %18) #3
  call void @llvm.lifetime.start.p0(i64 4, ptr %19) #3
  call void @llvm.lifetime.start.p0(i64 4, ptr %20) #3
  store i32 67305985, ptr %20, align 4
  %21 = load ptr, ptr %8, align 8
  %22 = getelementptr inbounds nuw %struct.SDL_PixelFormatDetails, ptr %21, i32 0, i32 7
  %23 = load i32, ptr %22, align 4
  %24 = icmp ne i32 %23, 0
  br i1 %24, label %25, label %106

25:                                               ; preds = %7
  %26 = load ptr, ptr %8, align 8
  %27 = getelementptr inbounds nuw %struct.SDL_PixelFormatDetails, ptr %26, i32 0, i32 8
  %28 = load i8, ptr %27, align 4
  %29 = zext i8 %28 to i64
  %30 = getelementptr inbounds nuw [9 x ptr], ptr @SDL_expand_byte, i64 0, i64 %29
  %31 = load ptr, ptr %30, align 8
  %32 = load i32, ptr %20, align 4
  %33 = load ptr, ptr %8, align 8
  %34 = getelementptr inbounds nuw %struct.SDL_PixelFormatDetails, ptr %33, i32 0, i32 4
  %35 = load i32, ptr %34, align 4
  %36 = and i32 %32, %35
  %37 = load ptr, ptr %8, align 8
  %38 = getelementptr inbounds nuw %struct.SDL_PixelFormatDetails, ptr %37, i32 0, i32 12
  %39 = load i8, ptr %38, align 4
  %40 = zext i8 %39 to i32
  %41 = lshr i32 %36, %40
  %42 = zext i32 %41 to i64
  %43 = getelementptr inbounds nuw i8, ptr %31, i64 %42
  %44 = load i8, ptr %43, align 1
  %45 = zext i8 %44 to i32
  store i32 %45, ptr %16, align 4
  %46 = load ptr, ptr %8, align 8
  %47 = getelementptr inbounds nuw %struct.SDL_PixelFormatDetails, ptr %46, i32 0, i32 9
  %48 = load i8, ptr %47, align 1
  %49 = zext i8 %48 to i64
  %50 = getelementptr inbounds nuw [9 x ptr], ptr @SDL_expand_byte, i64 0, i64 %49
  %51 = load ptr, ptr %50, align 8
  %52 = load i32, ptr %20, align 4
  %53 = load ptr, ptr %8, align 8
  %54 = getelementptr inbounds nuw %struct.SDL_PixelFormatDetails, ptr %53, i32 0, i32 5
  %55 = load i32, ptr %54, align 4
  %56 = and i32 %52, %55
  %57 = load ptr, ptr %8, align 8
  %58 = getelementptr inbounds nuw %struct.SDL_PixelFormatDetails, ptr %57, i32 0, i32 13
  %59 = load i8, ptr %58, align 1
  %60 = zext i8 %59 to i32
  %61 = lshr i32 %56, %60
  %62 = zext i32 %61 to i64
  %63 = getelementptr inbounds nuw i8, ptr %51, i64 %62
  %64 = load i8, ptr %63, align 1
  %65 = zext i8 %64 to i32
  store i32 %65, ptr %17, align 4
  %66 = load ptr, ptr %8, align 8
  %67 = getelementptr inbounds nuw %struct.SDL_PixelFormatDetails, ptr %66, i32 0, i32 10
  %68 = load i8, ptr %67, align 2
  %69 = zext i8 %68 to i64
  %70 = getelementptr inbounds nuw [9 x ptr], ptr @SDL_expand_byte, i64 0, i64 %69
  %71 = load ptr, ptr %70, align 8
  %72 = load i32, ptr %20, align 4
  %73 = load ptr, ptr %8, align 8
  %74 = getelementptr inbounds nuw %struct.SDL_PixelFormatDetails, ptr %73, i32 0, i32 6
  %75 = load i32, ptr %74, align 4
  %76 = and i32 %72, %75
  %77 = load ptr, ptr %8, align 8
  %78 = getelementptr inbounds nuw %struct.SDL_PixelFormatDetails, ptr %77, i32 0, i32 14
  %79 = load i8, ptr %78, align 2
  %80 = zext i8 %79 to i32
  %81 = lshr i32 %76, %80
  %82 = zext i32 %81 to i64
  %83 = getelementptr inbounds nuw i8, ptr %71, i64 %82
  %84 = load i8, ptr %83, align 1
  %85 = zext i8 %84 to i32
  store i32 %85, ptr %18, align 4
  %86 = load ptr, ptr %8, align 8
  %87 = getelementptr inbounds nuw %struct.SDL_PixelFormatDetails, ptr %86, i32 0, i32 11
  %88 = load i8, ptr %87, align 1
  %89 = zext i8 %88 to i64
  %90 = getelementptr inbounds nuw [9 x ptr], ptr @SDL_expand_byte, i64 0, i64 %89
  %91 = load ptr, ptr %90, align 8
  %92 = load i32, ptr %20, align 4
  %93 = load ptr, ptr %8, align 8
  %94 = getelementptr inbounds nuw %struct.SDL_PixelFormatDetails, ptr %93, i32 0, i32 7
  %95 = load i32, ptr %94, align 4
  %96 = and i32 %92, %95
  %97 = load ptr, ptr %8, align 8
  %98 = getelementptr inbounds nuw %struct.SDL_PixelFormatDetails, ptr %97, i32 0, i32 15
  %99 = load i8, ptr %98, align 1
  %100 = zext i8 %99 to i32
  %101 = lshr i32 %96, %100
  %102 = zext i32 %101 to i64
  %103 = getelementptr inbounds nuw i8, ptr %91, i64 %102
  %104 = load i8, ptr %103, align 1
  %105 = zext i8 %104 to i32
  store i32 %105, ptr %19, align 4
  br label %167

106:                                              ; preds = %7
  %107 = load ptr, ptr %8, align 8
  %108 = getelementptr inbounds nuw %struct.SDL_PixelFormatDetails, ptr %107, i32 0, i32 8
  %109 = load i8, ptr %108, align 4
  %110 = zext i8 %109 to i64
  %111 = getelementptr inbounds nuw [9 x ptr], ptr @SDL_expand_byte, i64 0, i64 %110
  %112 = load ptr, ptr %111, align 8
  %113 = load i32, ptr %20, align 4
  %114 = load ptr, ptr %8, align 8
  %115 = getelementptr inbounds nuw %struct.SDL_PixelFormatDetails, ptr %114, i32 0, i32 4
  %116 = load i32, ptr %115, align 4
  %117 = and i32 %113, %116
  %118 = load ptr, ptr %8, align 8
  %119 = getelementptr inbounds nuw %struct.SDL_PixelFormatDetails, ptr %118, i32 0, i32 12
  %120 = load i8, ptr %119, align 4
  %121 = zext i8 %120 to i32
  %122 = lshr i32 %117, %121
  %123 = zext i32 %122 to i64
  %124 = getelementptr inbounds nuw i8, ptr %112, i64 %123
  %125 = load i8, ptr %124, align 1
  %126 = zext i8 %125 to i32
  store i32 %126, ptr %16, align 4
  %127 = load ptr, ptr %8, align 8
  %128 = getelementptr inbounds nuw %struct.SDL_PixelFormatDetails, ptr %127, i32 0, i32 9
  %129 = load i8, ptr %128, align 1
  %130 = zext i8 %129 to i64
  %131 = getelementptr inbounds nuw [9 x ptr], ptr @SDL_expand_byte, i64 0, i64 %130
  %132 = load ptr, ptr %131, align 8
  %133 = load i32, ptr %20, align 4
  %134 = load ptr, ptr %8, align 8
  %135 = getelementptr inbounds nuw %struct.SDL_PixelFormatDetails, ptr %134, i32 0, i32 5
  %136 = load i32, ptr %135, align 4
  %137 = and i32 %133, %136
  %138 = load ptr, ptr %8, align 8
  %139 = getelementptr inbounds nuw %struct.SDL_PixelFormatDetails, ptr %138, i32 0, i32 13
  %140 = load i8, ptr %139, align 1
  %141 = zext i8 %140 to i32
  %142 = lshr i32 %137, %141
  %143 = zext i32 %142 to i64
  %144 = getelementptr inbounds nuw i8, ptr %132, i64 %143
  %145 = load i8, ptr %144, align 1
  %146 = zext i8 %145 to i32
  store i32 %146, ptr %17, align 4
  %147 = load ptr, ptr %8, align 8
  %148 = getelementptr inbounds nuw %struct.SDL_PixelFormatDetails, ptr %147, i32 0, i32 10
  %149 = load i8, ptr %148, align 2
  %150 = zext i8 %149 to i64
  %151 = getelementptr inbounds nuw [9 x ptr], ptr @SDL_expand_byte, i64 0, i64 %150
  %152 = load ptr, ptr %151, align 8
  %153 = load i32, ptr %20, align 4
  %154 = load ptr, ptr %8, align 8
  %155 = getelementptr inbounds nuw %struct.SDL_PixelFormatDetails, ptr %154, i32 0, i32 6
  %156 = load i32, ptr %155, align 4
  %157 = and i32 %153, %156
  %158 = load ptr, ptr %8, align 8
  %159 = getelementptr inbounds nuw %struct.SDL_PixelFormatDetails, ptr %158, i32 0, i32 14
  %160 = load i8, ptr %159, align 2
  %161 = zext i8 %160 to i32
  %162 = lshr i32 %157, %161
  %163 = zext i32 %162 to i64
  %164 = getelementptr inbounds nuw i8, ptr %152, i64 %163
  %165 = load i8, ptr %164, align 1
  %166 = zext i8 %165 to i32
  store i32 %166, ptr %18, align 4
  store i32 0, ptr %19, align 4
  br label %167

167:                                              ; preds = %106, %25
  %168 = load ptr, ptr %9, align 8
  %169 = getelementptr inbounds nuw %struct.SDL_PixelFormatDetails, ptr %168, i32 0, i32 7
  %170 = load i32, ptr %169, align 4
  %171 = icmp ne i32 %170, 0
  br i1 %171, label %172, label %281

172:                                              ; preds = %167
  %173 = load ptr, ptr %8, align 8
  %174 = getelementptr inbounds nuw %struct.SDL_PixelFormatDetails, ptr %173, i32 0, i32 7
  %175 = load i32, ptr %174, align 4
  %176 = icmp ne i32 %175, 0
  br i1 %176, label %177, label %229

177:                                              ; preds = %172
  %178 = load i32, ptr %16, align 4
  %179 = load ptr, ptr %9, align 8
  %180 = getelementptr inbounds nuw %struct.SDL_PixelFormatDetails, ptr %179, i32 0, i32 8
  %181 = load i8, ptr %180, align 4
  %182 = zext i8 %181 to i32
  %183 = sub nsw i32 8, %182
  %184 = ashr i32 %178, %183
  %185 = load ptr, ptr %9, align 8
  %186 = getelementptr inbounds nuw %struct.SDL_PixelFormatDetails, ptr %185, i32 0, i32 12
  %187 = load i8, ptr %186, align 4
  %188 = zext i8 %187 to i32
  %189 = shl i32 %184, %188
  %190 = load i32, ptr %17, align 4
  %191 = load ptr, ptr %9, align 8
  %192 = getelementptr inbounds nuw %struct.SDL_PixelFormatDetails, ptr %191, i32 0, i32 9
  %193 = load i8, ptr %192, align 1
  %194 = zext i8 %193 to i32
  %195 = sub nsw i32 8, %194
  %196 = ashr i32 %190, %195
  %197 = load ptr, ptr %9, align 8
  %198 = getelementptr inbounds nuw %struct.SDL_PixelFormatDetails, ptr %197, i32 0, i32 13
  %199 = load i8, ptr %198, align 1
  %200 = zext i8 %199 to i32
  %201 = shl i32 %196, %200
  %202 = or i32 %189, %201
  %203 = load i32, ptr %18, align 4
  %204 = load ptr, ptr %9, align 8
  %205 = getelementptr inbounds nuw %struct.SDL_PixelFormatDetails, ptr %204, i32 0, i32 10
  %206 = load i8, ptr %205, align 2
  %207 = zext i8 %206 to i32
  %208 = sub nsw i32 8, %207
  %209 = ashr i32 %203, %208
  %210 = load ptr, ptr %9, align 8
  %211 = getelementptr inbounds nuw %struct.SDL_PixelFormatDetails, ptr %210, i32 0, i32 14
  %212 = load i8, ptr %211, align 2
  %213 = zext i8 %212 to i32
  %214 = shl i32 %209, %213
  %215 = or i32 %202, %214
  %216 = load i32, ptr %19, align 4
  %217 = load ptr, ptr %9, align 8
  %218 = getelementptr inbounds nuw %struct.SDL_PixelFormatDetails, ptr %217, i32 0, i32 11
  %219 = load i8, ptr %218, align 1
  %220 = zext i8 %219 to i32
  %221 = sub nsw i32 8, %220
  %222 = ashr i32 %216, %221
  %223 = load ptr, ptr %9, align 8
  %224 = getelementptr inbounds nuw %struct.SDL_PixelFormatDetails, ptr %223, i32 0, i32 15
  %225 = load i8, ptr %224, align 1
  %226 = zext i8 %225 to i32
  %227 = shl i32 %222, %226
  %228 = or i32 %215, %227
  store i32 %228, ptr %20, align 4
  br label %280

229:                                              ; preds = %172
  %230 = load i32, ptr %16, align 4
  %231 = load ptr, ptr %9, align 8
  %232 = getelementptr inbounds nuw %struct.SDL_PixelFormatDetails, ptr %231, i32 0, i32 8
  %233 = load i8, ptr %232, align 4
  %234 = zext i8 %233 to i32
  %235 = sub nsw i32 8, %234
  %236 = ashr i32 %230, %235
  %237 = load ptr, ptr %9, align 8
  %238 = getelementptr inbounds nuw %struct.SDL_PixelFormatDetails, ptr %237, i32 0, i32 12
  %239 = load i8, ptr %238, align 4
  %240 = zext i8 %239 to i32
  %241 = shl i32 %236, %240
  %242 = load i32, ptr %17, align 4
  %243 = load ptr, ptr %9, align 8
  %244 = getelementptr inbounds nuw %struct.SDL_PixelFormatDetails, ptr %243, i32 0, i32 9
  %245 = load i8, ptr %244, align 1
  %246 = zext i8 %245 to i32
  %247 = sub nsw i32 8, %246
  %248 = ashr i32 %242, %247
  %249 = load ptr, ptr %9, align 8
  %250 = getelementptr inbounds nuw %struct.SDL_PixelFormatDetails, ptr %249, i32 0, i32 13
  %251 = load i8, ptr %250, align 1
  %252 = zext i8 %251 to i32
  %253 = shl i32 %248, %252
  %254 = or i32 %241, %253
  %255 = load i32, ptr %18, align 4
  %256 = load ptr, ptr %9, align 8
  %257 = getelementptr inbounds nuw %struct.SDL_PixelFormatDetails, ptr %256, i32 0, i32 10
  %258 = load i8, ptr %257, align 2
  %259 = zext i8 %258 to i32
  %260 = sub nsw i32 8, %259
  %261 = ashr i32 %255, %260
  %262 = load ptr, ptr %9, align 8
  %263 = getelementptr inbounds nuw %struct.SDL_PixelFormatDetails, ptr %262, i32 0, i32 14
  %264 = load i8, ptr %263, align 2
  %265 = zext i8 %264 to i32
  %266 = shl i32 %261, %265
  %267 = or i32 %254, %266
  %268 = load ptr, ptr %9, align 8
  %269 = getelementptr inbounds nuw %struct.SDL_PixelFormatDetails, ptr %268, i32 0, i32 11
  %270 = load i8, ptr %269, align 1
  %271 = zext i8 %270 to i32
  %272 = sub nsw i32 8, %271
  %273 = ashr i32 0, %272
  %274 = load ptr, ptr %9, align 8
  %275 = getelementptr inbounds nuw %struct.SDL_PixelFormatDetails, ptr %274, i32 0, i32 15
  %276 = load i8, ptr %275, align 1
  %277 = zext i8 %276 to i32
  %278 = shl i32 %273, %277
  %279 = or i32 %267, %278
  store i32 %279, ptr %20, align 4
  br label %280

280:                                              ; preds = %229, %177
  br label %324

281:                                              ; preds = %167
  %282 = load i32, ptr %16, align 4
  %283 = load ptr, ptr %9, align 8
  %284 = getelementptr inbounds nuw %struct.SDL_PixelFormatDetails, ptr %283, i32 0, i32 8
  %285 = load i8, ptr %284, align 4
  %286 = zext i8 %285 to i32
  %287 = sub nsw i32 8, %286
  %288 = ashr i32 %282, %287
  %289 = load ptr, ptr %9, align 8
  %290 = getelementptr inbounds nuw %struct.SDL_PixelFormatDetails, ptr %289, i32 0, i32 12
  %291 = load i8, ptr %290, align 4
  %292 = zext i8 %291 to i32
  %293 = shl i32 %288, %292
  %294 = load i32, ptr %17, align 4
  %295 = load ptr, ptr %9, align 8
  %296 = getelementptr inbounds nuw %struct.SDL_PixelFormatDetails, ptr %295, i32 0, i32 9
  %297 = load i8, ptr %296, align 1
  %298 = zext i8 %297 to i32
  %299 = sub nsw i32 8, %298
  %300 = ashr i32 %294, %299
  %301 = load ptr, ptr %9, align 8
  %302 = getelementptr inbounds nuw %struct.SDL_PixelFormatDetails, ptr %301, i32 0, i32 13
  %303 = load i8, ptr %302, align 1
  %304 = zext i8 %303 to i32
  %305 = shl i32 %300, %304
  %306 = or i32 %293, %305
  %307 = load i32, ptr %18, align 4
  %308 = load ptr, ptr %9, align 8
  %309 = getelementptr inbounds nuw %struct.SDL_PixelFormatDetails, ptr %308, i32 0, i32 10
  %310 = load i8, ptr %309, align 2
  %311 = zext i8 %310 to i32
  %312 = sub nsw i32 8, %311
  %313 = ashr i32 %307, %312
  %314 = load ptr, ptr %9, align 8
  %315 = getelementptr inbounds nuw %struct.SDL_PixelFormatDetails, ptr %314, i32 0, i32 14
  %316 = load i8, ptr %315, align 2
  %317 = zext i8 %316 to i32
  %318 = shl i32 %313, %317
  %319 = or i32 %306, %318
  %320 = load ptr, ptr %9, align 8
  %321 = getelementptr inbounds nuw %struct.SDL_PixelFormatDetails, ptr %320, i32 0, i32 7
  %322 = load i32, ptr %321, align 4
  %323 = or i32 %319, %322
  store i32 %323, ptr %20, align 4
  br label %324

324:                                              ; preds = %281, %280
  %325 = load i32, ptr %20, align 4
  %326 = and i32 %325, 255
  store i32 %326, ptr %16, align 4
  %327 = load i32, ptr %20, align 4
  %328 = ashr i32 %327, 8
  %329 = and i32 %328, 255
  store i32 %329, ptr %17, align 4
  %330 = load i32, ptr %20, align 4
  %331 = ashr i32 %330, 16
  %332 = and i32 %331, 255
  store i32 %332, ptr %18, align 4
  %333 = load i32, ptr %20, align 4
  %334 = ashr i32 %333, 24
  %335 = and i32 %334, 255
  store i32 %335, ptr %19, align 4
  %336 = load i32, ptr %16, align 4
  %337 = icmp eq i32 %336, 0
  br i1 %337, label %338, label %339

338:                                              ; preds = %324
  store i32 1, ptr %16, align 4
  store i32 0, ptr %15, align 4
  br label %354

339:                                              ; preds = %324
  %340 = load i32, ptr %17, align 4
  %341 = icmp eq i32 %340, 0
  br i1 %341, label %342, label %343

342:                                              ; preds = %339
  store i32 1, ptr %17, align 4
  store i32 1, ptr %15, align 4
  br label %353

343:                                              ; preds = %339
  %344 = load i32, ptr %18, align 4
  %345 = icmp eq i32 %344, 0
  br i1 %345, label %346, label %347

346:                                              ; preds = %343
  store i32 1, ptr %18, align 4
  store i32 2, ptr %15, align 4
  br label %352

347:                                              ; preds = %343
  %348 = load i32, ptr %19, align 4
  %349 = icmp eq i32 %348, 0
  br i1 %349, label %350, label %351

350:                                              ; preds = %347
  store i32 1, ptr %19, align 4
  store i32 3, ptr %15, align 4
  br label %351

351:                                              ; preds = %350, %347
  br label %352

352:                                              ; preds = %351, %346
  br label %353

353:                                              ; preds = %352, %342
  br label %354

354:                                              ; preds = %353, %338
  %355 = load i32, ptr %16, align 4
  %356 = sub nsw i32 %355, 1
  %357 = load ptr, ptr %10, align 8
  store i32 %356, ptr %357, align 4
  %358 = load i32, ptr %17, align 4
  %359 = sub nsw i32 %358, 1
  %360 = load ptr, ptr %11, align 8
  store i32 %359, ptr %360, align 4
  %361 = load i32, ptr %18, align 4
  %362 = sub nsw i32 %361, 1
  %363 = load ptr, ptr %12, align 8
  store i32 %362, ptr %363, align 4
  %364 = load i32, ptr %19, align 4
  %365 = sub nsw i32 %364, 1
  %366 = load ptr, ptr %13, align 8
  store i32 %365, ptr %366, align 4
  %367 = load ptr, ptr %14, align 8
  %368 = icmp ne ptr %367, null
  br i1 %368, label %369, label %372

369:                                              ; preds = %354
  %370 = load i32, ptr %15, align 4
  %371 = load ptr, ptr %14, align 8
  store i32 %370, ptr %371, align 4
  br label %372

372:                                              ; preds = %369, %354
  call void @llvm.lifetime.end.p0(i64 4, ptr %20) #3
  call void @llvm.lifetime.end.p0(i64 4, ptr %19) #3
  call void @llvm.lifetime.end.p0(i64 4, ptr %18) #3
  call void @llvm.lifetime.end.p0(i64 4, ptr %17) #3
  call void @llvm.lifetime.end.p0(i64 4, ptr %16) #3
  call void @llvm.lifetime.end.p0(i64 4, ptr %15) #3
  ret void
}