; Function Attrs: mustprogress nofree norecurse nosync nounwind willreturn memory(read, argmem: readwrite, inaccessiblemem: none) uwtable
define internal fastcc void @get_permutation(ptr noundef readonly captures(none) %0, ptr noundef readonly captures(none) %1, ptr noundef nonnull writeonly captures(none) initializes((0, 4)) %2, ptr noundef nonnull writeonly captures(none) initializes((0, 4)) %3, ptr noundef nonnull writeonly captures(none) initializes((0, 4)) %4, ptr noundef nonnull writeonly captures(none) initializes((0, 4)) %5, ptr noundef writeonly captures(address_is_null) %6) unnamed_addr #4 {
  %8 = getelementptr inbounds nuw i8, ptr %0, i64 20
  %9 = load i32, ptr %8, align 4
  %.not = icmp eq i32 %9, 0
  %10 = getelementptr inbounds nuw i8, ptr %0, i64 24
  %11 = load i8, ptr %10, align 4
  %12 = zext i8 %11 to i64
  %13 = getelementptr inbounds nuw [9 x ptr], ptr @SDL_expand_byte, i64 0, i64 %12
  %14 = load ptr, ptr %13, align 8
  %15 = getelementptr inbounds nuw i8, ptr %0, i64 8
  %16 = load i32, ptr %15, align 4
  %17 = and i32 %16, 67305985
  %18 = getelementptr inbounds nuw i8, ptr %0, i64 28
  %19 = load i8, ptr %18, align 4
  %20 = zext nneg i8 %19 to i32
  %21 = lshr i32 %17, %20
  %22 = zext nneg i32 %21 to i64
  %23 = getelementptr inbounds nuw i8, ptr %14, i64 %22
  %24 = getelementptr inbounds nuw i8, ptr %0, i64 25
  %25 = load i8, ptr %24, align 1
  %26 = zext i8 %25 to i64
  %27 = getelementptr inbounds nuw [9 x ptr], ptr @SDL_expand_byte, i64 0, i64 %26
  %28 = load ptr, ptr %27, align 8
  %29 = getelementptr inbounds nuw i8, ptr %0, i64 12
  %30 = load i32, ptr %29, align 4
  %31 = and i32 %30, 67305985
  %32 = getelementptr inbounds nuw i8, ptr %0, i64 29
  %33 = load i8, ptr %32, align 1
  %34 = zext nneg i8 %33 to i32
  %35 = lshr i32 %31, %34
  %36 = zext nneg i32 %35 to i64
  %37 = getelementptr inbounds nuw i8, ptr %28, i64 %36
  %38 = getelementptr inbounds nuw i8, ptr %0, i64 26
  %39 = load i8, ptr %38, align 2
  %40 = zext i8 %39 to i64
  %41 = getelementptr inbounds nuw [9 x ptr], ptr @SDL_expand_byte, i64 0, i64 %40
  %42 = load ptr, ptr %41, align 8
  %43 = getelementptr inbounds nuw i8, ptr %0, i64 16
  %44 = load i32, ptr %43, align 4
  %45 = and i32 %44, 67305985
  %46 = getelementptr inbounds nuw i8, ptr %0, i64 30
  %47 = load i8, ptr %46, align 2
  %48 = zext nneg i8 %47 to i32
  %49 = lshr i32 %45, %48
  %50 = zext nneg i32 %49 to i64
  %51 = getelementptr inbounds nuw i8, ptr %42, i64 %50
  %.083.in = load i8, ptr %51, align 1
  %.083 = zext i8 %.083.in to i32
  %.085.in = load i8, ptr %37, align 1
  %.085 = zext i8 %.085.in to i32
  %.087.in = load i8, ptr %23, align 1
  %.087 = zext i8 %.087.in to i32
  %52 = getelementptr inbounds nuw i8, ptr %1, i64 20
  %53 = load i32, ptr %52, align 4
  %.not97 = icmp eq i32 %53, 0
  br i1 %.not, label %54, label %.thread

54:                                               ; preds = %7
  br i1 %.not97, label %120, label %99

.thread:                                          ; preds = %7
  br i1 %.not97, label %120, label %.thread119

.thread119:                                       ; preds = %.thread
  %55 = getelementptr inbounds nuw i8, ptr %0, i64 27
  %56 = load i8, ptr %55, align 1
  %57 = zext i8 %56 to i64
  %58 = getelementptr inbounds nuw [9 x ptr], ptr @SDL_expand_byte, i64 0, i64 %57
  %59 = load ptr, ptr %58, align 8
  %60 = and i32 %9, 67305985
  %61 = getelementptr inbounds nuw i8, ptr %0, i64 31
  %62 = load i8, ptr %61, align 1
  %63 = zext nneg i8 %62 to i32
  %64 = lshr i32 %60, %63
  %65 = zext nneg i32 %64 to i64
  %66 = getelementptr inbounds nuw i8, ptr %59, i64 %65
  %67 = load i8, ptr %66, align 1
  %68 = zext i8 %67 to i32
  %69 = getelementptr inbounds nuw i8, ptr %1, i64 24
  %70 = load i8, ptr %69, align 4
  %71 = zext i8 %70 to i32
  %72 = sub nsw i32 8, %71
  %73 = lshr i32 %.087, %72
  %74 = getelementptr inbounds nuw i8, ptr %1, i64 28
  %75 = load i8, ptr %74, align 4
  %76 = zext nneg i8 %75 to i32
  %77 = shl i32 %73, %76
  %78 = getelementptr inbounds nuw i8, ptr %1, i64 25
  %79 = load i8, ptr %78, align 1
  %80 = zext i8 %79 to i32
  %81 = sub nsw i32 8, %80
  %82 = lshr i32 %.085, %81
  %83 = getelementptr inbounds nuw i8, ptr %1, i64 29
  %84 = load i8, ptr %83, align 1
  %85 = zext nneg i8 %84 to i32
  %86 = shl i32 %82, %85
  %87 = or i32 %86, %77
  %88 = getelementptr inbounds nuw i8, ptr %1, i64 26
  %89 = load i8, ptr %88, align 2
  %90 = zext i8 %89 to i32
  %91 = sub nsw i32 8, %90
  %92 = lshr i32 %.083, %91
  %93 = getelementptr inbounds nuw i8, ptr %1, i64 30
  %94 = load i8, ptr %93, align 2
  %95 = zext nneg i8 %94 to i32
  %96 = shl i32 %92, %95
  %97 = or i32 %87, %96
  %98 = getelementptr inbounds nuw i8, ptr %1, i64 27
  br label %141

99:                                               ; preds = %54
  %100 = getelementptr inbounds nuw i8, ptr %1, i64 24
  %101 = load i8, ptr %100, align 4
  %102 = zext i8 %101 to i32
  %103 = sub nsw i32 8, %102
  %104 = lshr i32 %.087, %103
  %105 = getelementptr inbounds nuw i8, ptr %1, i64 28
  %106 = load i8, ptr %105, align 4
  %107 = zext nneg i8 %106 to i32
  %108 = shl i32 %104, %107
  %109 = getelementptr inbounds nuw i8, ptr %1, i64 25
  %110 = load i8, ptr %109, align 1
  %111 = zext i8 %110 to i32
  %112 = sub nsw i32 8, %111
  %113 = lshr i32 %.085, %112
  %114 = getelementptr inbounds nuw i8, ptr %1, i64 29
  %115 = load i8, ptr %114, align 1
  %116 = zext nneg i8 %115 to i32
  %117 = shl i32 %113, %116
  %118 = or i32 %117, %108
  %119 = getelementptr inbounds nuw i8, ptr %1, i64 26
  br label %141

120:                                              ; preds = %.thread, %54
  %121 = getelementptr inbounds nuw i8, ptr %1, i64 24
  %122 = load i8, ptr %121, align 4
  %123 = zext i8 %122 to i32
  %124 = sub nsw i32 8, %123
  %125 = lshr i32 %.087, %124
  %126 = getelementptr inbounds nuw i8, ptr %1, i64 28
  %127 = load i8, ptr %126, align 4
  %128 = zext nneg i8 %127 to i32
  %129 = shl i32 %125, %128
  %130 = getelementptr inbounds nuw i8, ptr %1, i64 25
  %131 = load i8, ptr %130, align 1
  %132 = zext i8 %131 to i32
  %133 = sub nsw i32 8, %132
  %134 = lshr i32 %.085, %133
  %135 = getelementptr inbounds nuw i8, ptr %1, i64 29
  %136 = load i8, ptr %135, align 1
  %137 = zext nneg i8 %136 to i32
  %138 = shl i32 %134, %137
  %139 = or i32 %138, %129
  %140 = getelementptr inbounds nuw i8, ptr %1, i64 26
  br label %141

141:                                              ; preds = %.thread119, %99, %120
  %.sink136.in = phi ptr [ %98, %.thread119 ], [ %119, %99 ], [ %140, %120 ]
  %.sink133 = phi i32 [ %68, %.thread119 ], [ %.083, %99 ], [ %.083, %120 ]
  %.sink132 = phi i64 [ 31, %.thread119 ], [ 30, %99 ], [ 30, %120 ]
  %.sink = phi i32 [ %97, %.thread119 ], [ %118, %99 ], [ %139, %120 ]
  %.sink136 = load i8, ptr %.sink136.in, align 1
  %142 = zext i8 %.sink136 to i32
  %143 = sub nsw i32 8, %142
  %144 = lshr i32 %.sink133, %143
  %145 = getelementptr inbounds nuw i8, ptr %1, i64 %.sink132
  %.sink131 = load i8, ptr %145, align 1
  %146 = zext nneg i8 %.sink131 to i32
  %147 = shl i32 %144, %146
  %148 = or i32 %.sink, %147
  %149 = and i32 %148, 255
  %150 = lshr i32 %148, 8
  %151 = and i32 %150, 255
  %152 = lshr i32 %148, 16
  %153 = and i32 %152, 255
  %154 = lshr i32 %148, 24
  %155 = icmp eq i32 %149, 0
  br i1 %155, label %162, label %156

156:                                              ; preds = %141
  %157 = icmp eq i32 %151, 0
  br i1 %157, label %162, label %158

158:                                              ; preds = %156
  %159 = icmp eq i32 %153, 0
  br i1 %159, label %162, label %160

160:                                              ; preds = %158
  %161 = icmp ult i32 %148, 16777216
  %spec.select = select i1 %161, i32 3, i32 0
  %spec.select100 = select i1 %161, i32 1, i32 %154
  br label %162

162:                                              ; preds = %160, %158, %156, %141
  %.089 = phi i32 [ 0, %141 ], [ 1, %156 ], [ 2, %158 ], [ %spec.select, %160 ]
  %.188 = phi i32 [ 1, %141 ], [ %149, %156 ], [ %149, %158 ], [ %149, %160 ]
  %.186 = phi i32 [ %151, %141 ], [ 1, %156 ], [ %151, %158 ], [ %151, %160 ]
  %.184 = phi i32 [ %153, %141 ], [ %153, %156 ], [ 1, %158 ], [ %153, %160 ]
  %.1 = phi i32 [ %154, %141 ], [ %154, %156 ], [ %154, %158 ], [ %spec.select100, %160 ]
  %163 = add nsw i32 %.188, -1
  store i32 %163, ptr %2, align 4
  %164 = add nsw i32 %.186, -1
  store i32 %164, ptr %3, align 4
  %165 = add nsw i32 %.184, -1
  store i32 %165, ptr %4, align 4
  %166 = add nsw i32 %.1, -1
  store i32 %166, ptr %5, align 4
  %.not99 = icmp eq ptr %6, null
  br i1 %.not99, label %168, label %167

167:                                              ; preds = %162
  store i32 %.089, ptr %6, align 4
  br label %168

168:                                              ; preds = %167, %162
  ret void
}